; ModuleID = 'source-C-CXX/16/1042.cpp'
source_filename = "source-C-CXX/16/1042.cpp"
target datalayout = "e-m:e-p270:32:32-p271:32:32-p272:64:64-i64:64-f80:128-n8:16:32:64-S128"
target triple = "x86_64-pc-linux-gnu"

%"class.std::ios_base::Init" = type { i8 }
%"class.std::basic_istream" = type { i32 (...)**, i64, %"class.std::basic_ios" }
%"class.std::basic_ios" = type { %"class.std::ios_base", %"class.std::basic_ostream"*, i8, i8, %"class.std::basic_streambuf"*, %"class.std::ctype"*, %"class.std::num_put"*, %"class.std::num_get"* }
%"class.std::ios_base" = type { i32 (...)**, i64, i64, i32, i32, i32, %"struct.std::ios_base::_Callback_list"*, %"struct.std::ios_base::_Words", [8 x %"struct.std::ios_base::_Words"], i32, %"struct.std::ios_base::_Words"*, %"class.std::locale" }
%"struct.std::ios_base::_Callback_list" = type { %"struct.std::ios_base::_Callback_list"*, void (i32, %"class.std::ios_base"*, i32)*, i32, i32 }
%"struct.std::ios_base::_Words" = type { i8*, i64 }
%"class.std::locale" = type { %"class.std::locale::_Impl"* }
%"class.std::locale::_Impl" = type { i32, %"class.std::locale::facet"**, i64, %"class.std::locale::facet"**, i8** }
%"class.std::locale::facet" = type <{ i32 (...)**, i32, [4 x i8] }>
%"class.std::basic_ostream" = type { i32 (...)**, %"class.std::basic_ios" }
%"class.std::basic_streambuf" = type { i32 (...)**, i8*, i8*, i8*, i8*, i8*, i8*, %"class.std::locale" }
%"class.std::ctype" = type <{ %"class.std::locale::facet.base", [4 x i8], %struct.__locale_struct*, i8, [7 x i8], i32*, i32*, i16*, i8, [256 x i8], [256 x i8], i8, [6 x i8] }>
%"class.std::locale::facet.base" = type <{ i32 (...)**, i32 }>
%struct.__locale_struct = type { [13 x %struct.__locale_data*], i16*, i32*, i32*, [13 x i8*] }
%struct.__locale_data = type opaque
%"class.std::num_put" = type { %"class.std::locale::facet.base", [4 x i8] }
%"class.std::num_get" = type { %"class.std::locale::facet.base", [4 x i8] }

@_ZStL8__ioinit = internal global %"class.std::ios_base::Init" zeroinitializer, align 1
@__dso_handle = external hidden global i8
@_ZSt3cin = external global %"class.std::basic_istream", align 8
@_ZSt4cout = external global %"class.std::basic_ostream", align 8
@.str = private unnamed_addr constant [2 x i8] c" \00", align 1
@llvm.global_ctors = appending global [1 x { i32, void ()*, i8* }] [{ i32, void ()*, i8* } { i32 65535, void ()* @_GLOBAL__sub_I_1042.cpp, i8* null }]

declare void @_ZNSt8ios_base4InitC1Ev(%"class.std::ios_base::Init"* nonnull align 1 dereferenceable(1)) unnamed_addr #0

; Function Attrs: nounwind
declare void @_ZNSt8ios_base4InitD1Ev(%"class.std::ios_base::Init"* nonnull align 1 dereferenceable(1)) unnamed_addr #1

; Function Attrs: nofree nounwind
declare i32 @__cxa_atexit(void (i8*)*, i8*, i8*) local_unnamed_addr #2

; Function Attrs: mustprogress norecurse sspstrong uwtable
define dso_local i32 @main() local_unnamed_addr #3 {
  %1 = alloca i8, align 1
  %2 = alloca i8, align 1
  %3 = alloca i8, align 1
  %4 = alloca i8, align 1
  %5 = alloca i32, align 4
  %6 = alloca [1000 x i8], align 16
  %7 = bitcast i32* %5 to i8*
  call void @llvm.lifetime.start.p0i8(i64 4, i8* nonnull %7) #7
  %8 = call nonnull align 8 dereferenceable(16) %"class.std::basic_istream"* @_ZNSirsERi(%"class.std::basic_istream"* nonnull align 8 dereferenceable(16) @_ZSt3cin, i32* nonnull align 4 dereferenceable(4) %5)
  %9 = getelementptr inbounds [1000 x i8], [1000 x i8]* %6, i64 0, i64 0
  %10 = load i32, i32* %5, align 4, !tbaa !5
  %11 = add nsw i32 %10, -1
  store i32 %11, i32* %5, align 4, !tbaa !5
  %12 = icmp eq i32 %10, 0
  br i1 %12, label %83, label %13

13:                                               ; preds = %0, %65
  call void @llvm.lifetime.start.p0i8(i64 1000, i8* nonnull %9) #7
  call void @_ZSt17__istream_extractRSiPcl(%"class.std::basic_istream"* nonnull align 8 dereferenceable(16) @_ZSt3cin, i8* nonnull %9, i64 1000)
  %14 = call i64 @strlen(i8* noundef nonnull dereferenceable(1) %9) #7
  %15 = call nonnull align 8 dereferenceable(8) %"class.std::basic_ostream"* @_ZSt16__ostream_insertIcSt11char_traitsIcEERSt13basic_ostreamIT_T0_ES6_PKS3_l(%"class.std::basic_ostream"* nonnull align 8 dereferenceable(8) @_ZSt4cout, i8* nonnull %9, i64 %14)
  call void @llvm.lifetime.start.p0i8(i64 1, i8* nonnull %4)
  store i8 10, i8* %4, align 1, !tbaa !9
  %16 = call nonnull align 8 dereferenceable(8) %"class.std::basic_ostream"* @_ZSt16__ostream_insertIcSt11char_traitsIcEERSt13basic_ostreamIT_T0_ES6_PKS3_l(%"class.std::basic_ostream"* nonnull align 8 dereferenceable(8) @_ZSt4cout, i8* nonnull %4, i64 1)
  call void @llvm.lifetime.end.p0i8(i64 1, i8* nonnull %4)
  %17 = call i64 @strlen(i8* noundef nonnull %9) #8
  %18 = trunc i64 %17 to i32
  %19 = icmp sgt i32 %18, 0
  br i1 %19, label %20, label %65

20:                                               ; preds = %13
  %21 = and i64 %17, 4294967295
  br label %25

22:                                               ; preds = %62
  br i1 %19, label %23, label %65

23:                                               ; preds = %22
  %24 = and i64 %17, 4294967295
  br label %70

25:                                               ; preds = %62, %20
  %26 = phi i64 [ 0, %20 ], [ %63, %62 ]
  %27 = trunc i64 %26 to i32
  br label %28

28:                                               ; preds = %25, %38
  %29 = phi i32 [ %39, %38 ], [ %27, %25 ]
  %30 = zext i32 %29 to i64
  %31 = getelementptr inbounds [1000 x i8], [1000 x i8]* %6, i64 0, i64 %30
  %32 = load i8, i8* %31, align 1, !tbaa !9
  %33 = icmp ne i8 %32, 41
  %34 = icmp eq i64 %26, %30
  %35 = select i1 %33, i1 true, i1 %34
  br i1 %35, label %36, label %41

36:                                               ; preds = %28
  %37 = icmp eq i8 %32, 40
  br i1 %37, label %41, label %38

38:                                               ; preds = %36
  %39 = add nsw i32 %29, -1
  %40 = icmp sgt i32 %29, 0
  br i1 %40, label %28, label %41, !llvm.loop !10

41:                                               ; preds = %36, %28, %38
  %42 = phi i32 [ -1, %38 ], [ -1, %28 ], [ %29, %36 ]
  br label %43

43:                                               ; preds = %41, %52
  %44 = phi i64 [ %26, %41 ], [ %53, %52 ]
  %45 = getelementptr inbounds [1000 x i8], [1000 x i8]* %6, i64 0, i64 %44
  %46 = load i8, i8* %45, align 1, !tbaa !9
  %47 = icmp ne i8 %46, 40
  %48 = icmp eq i64 %44, %26
  %49 = select i1 %47, i1 true, i1 %48
  br i1 %49, label %50, label %62

50:                                               ; preds = %43
  %51 = icmp eq i8 %46, 41
  br i1 %51, label %55, label %52

52:                                               ; preds = %50
  %53 = add nuw nsw i64 %44, 1
  %54 = icmp eq i64 %53, %21
  br i1 %54, label %62, label %43, !llvm.loop !12

55:                                               ; preds = %50
  %56 = icmp eq i32 %42, -1
  br i1 %56, label %62, label %57

57:                                               ; preds = %55
  %58 = and i64 %44, 4294967295
  %59 = getelementptr inbounds [1000 x i8], [1000 x i8]* %6, i64 0, i64 %58
  store i8 48, i8* %59, align 1, !tbaa !9
  %60 = sext i32 %42 to i64
  %61 = getelementptr inbounds [1000 x i8], [1000 x i8]* %6, i64 0, i64 %60
  store i8 48, i8* %61, align 1, !tbaa !9
  br label %62

62:                                               ; preds = %52, %43, %57, %55
  %63 = add nuw nsw i64 %26, 1
  %64 = icmp eq i64 %63, %21
  br i1 %64, label %22, label %25, !llvm.loop !13

65:                                               ; preds = %80, %13, %22
  call void @llvm.lifetime.start.p0i8(i64 1, i8* nonnull %3)
  store i8 10, i8* %3, align 1, !tbaa !9
  %66 = call nonnull align 8 dereferenceable(8) %"class.std::basic_ostream"* @_ZSt16__ostream_insertIcSt11char_traitsIcEERSt13basic_ostreamIT_T0_ES6_PKS3_l(%"class.std::basic_ostream"* nonnull align 8 dereferenceable(8) @_ZSt4cout, i8* nonnull %3, i64 1)
  call void @llvm.lifetime.end.p0i8(i64 1, i8* nonnull %3)
  call void @llvm.lifetime.end.p0i8(i64 1000, i8* nonnull %9) #7
  %67 = load i32, i32* %5, align 4, !tbaa !5
  %68 = add nsw i32 %67, -1
  store i32 %68, i32* %5, align 4, !tbaa !5
  %69 = icmp eq i32 %67, 0
  br i1 %69, label %83, label %13, !llvm.loop !14

70:                                               ; preds = %23, %80
  %71 = phi i64 [ 0, %23 ], [ %81, %80 ]
  %72 = getelementptr inbounds [1000 x i8], [1000 x i8]* %6, i64 0, i64 %71
  %73 = load i8, i8* %72, align 1, !tbaa !9
  switch i8 %73, label %78 [
    i8 40, label %74
    i8 41, label %76
  ]

74:                                               ; preds = %70
  call void @llvm.lifetime.start.p0i8(i64 1, i8* nonnull %2)
  store i8 36, i8* %2, align 1, !tbaa !9
  %75 = call nonnull align 8 dereferenceable(8) %"class.std::basic_ostream"* @_ZSt16__ostream_insertIcSt11char_traitsIcEERSt13basic_ostreamIT_T0_ES6_PKS3_l(%"class.std::basic_ostream"* nonnull align 8 dereferenceable(8) @_ZSt4cout, i8* nonnull %2, i64 1)
  call void @llvm.lifetime.end.p0i8(i64 1, i8* nonnull %2)
  br label %80

76:                                               ; preds = %70
  call void @llvm.lifetime.start.p0i8(i64 1, i8* nonnull %1)
  store i8 63, i8* %1, align 1, !tbaa !9
  %77 = call nonnull align 8 dereferenceable(8) %"class.std::basic_ostream"* @_ZSt16__ostream_insertIcSt11char_traitsIcEERSt13basic_ostreamIT_T0_ES6_PKS3_l(%"class.std::basic_ostream"* nonnull align 8 dereferenceable(8) @_ZSt4cout, i8* nonnull %1, i64 1)
  call void @llvm.lifetime.end.p0i8(i64 1, i8* nonnull %1)
  br label %80

78:                                               ; preds = %70
  %79 = call nonnull align 8 dereferenceable(8) %"class.std::basic_ostream"* @_ZSt16__ostream_insertIcSt11char_traitsIcEERSt13basic_ostreamIT_T0_ES6_PKS3_l(%"class.std::basic_ostream"* nonnull align 8 dereferenceable(8) @_ZSt4cout, i8* nonnull getelementptr inbounds ([2 x i8], [2 x i8]* @.str, i64 0, i64 0), i64 1)
  br label %80

80:                                               ; preds = %74, %78, %76
  %81 = add nuw nsw i64 %71, 1
  %82 = icmp eq i64 %81, %24
  br i1 %82, label %65, label %70, !llvm.loop !15

83:                                               ; preds = %65, %0
  call void @llvm.lifetime.end.p0i8(i64 4, i8* nonnull %7) #7
  ret i32 0
}

; Function Attrs: argmemonly mustprogress nofree nosync nounwind willreturn
declare void @llvm.lifetime.start.p0i8(i64 immarg, i8* nocapture) #4

declare nonnull align 8 dereferenceable(16) %"class.std::basic_istream"* @_ZNSirsERi(%"class.std::basic_istream"* nonnull align 8 dereferenceable(16), i32* nonnull align 4 dereferenceable(4)) local_unnamed_addr #0

; Function Attrs: argmemonly mustprogress nofree nounwind readonly willreturn
declare i64 @strlen(i8* nocapture) local_unnamed_addr #5

; Function Attrs: argmemonly mustprogress nofree nosync nounwind willreturn
declare void @llvm.lifetime.end.p0i8(i64 immarg, i8* nocapture) #4

declare void @_ZSt17__istream_extractRSiPcl(%"class.std::basic_istream"* nonnull align 8 dereferenceable(16), i8*, i64) local_unnamed_addr #0

declare nonnull align 8 dereferenceable(8) %"class.std::basic_ostream"* @_ZSt16__ostream_insertIcSt11char_traitsIcEERSt13basic_ostreamIT_T0_ES6_PKS3_l(%"class.std::basic_ostream"* nonnull align 8 dereferenceable(8), i8*, i64) local_unnamed_addr #0

; Function Attrs: sspstrong uwtable
define internal void @_GLOBAL__sub_I_1042.cpp() #6 section ".text.startup" {
  tail call void @_ZNSt8ios_base4InitC1Ev(%"class.std::ios_base::Init"* nonnull align 1 dereferenceable(1) @_ZStL8__ioinit)
  %1 = tail call i32 @__cxa_atexit(void (i8*)* bitcast (void (%"class.std::ios_base::Init"*)* @_ZNSt8ios_base4InitD1Ev to void (i8*)*), i8* getelementptr inbounds (%"class.std::ios_base::Init", %"class.std::ios_base::Init"* @_ZStL8__ioinit, i64 0, i32 0), i8* nonnull @__dso_handle) #7
  ret void
}


!llvm.module.flags = !{!0, !1, !2, !3}
!llvm.ident = !{!4}

!0 = !{i32 1, !"wchar_size", i32 4}
!1 = !{i32 7, !"PIC Level", i32 2}
!2 = !{i32 7, !"PIE Level", i32 2}
!3 = !{i32 7, !"uwtable", i32 1}
!4 = !{!"clang version 13.0.0"}
!5 = !{!6, !6, i64 0}
!6 = !{!"int", !7, i64 0}
!7 = !{!"omnipotent char", !8, i64 0}
!8 = !{!"Simple C++ TBAA"}
!9 = !{!7, !7, i64 0}
!10 = distinct !{!10, !11}
!11 = !{!"llvm.loop.mustprogress"}
!12 = distinct !{!12, !11}
!13 = distinct !{!13, !11}
!14 = distinct !{!14, !11}
!15 = distinct !{!15, !11}
